---
triple:          'arm64-apple-darwin'
binary-path:     a.out
relocations:
  - { offsetInCU: 0x2F42, offset: 0x2F42, size: 0x8, addend: 0x0, symName: __ZNSt3__124__put_character_sequenceB7v160006IcNS_11char_traitsIcEEEERNS_13basic_ostreamIT_T0_EES7_PKS4_m, symObjAddr: 0xB24, symBinAddr: 0x1000030C4, symSize: 0x1EC }
  - { offsetInCU: 0x5C9E, offset: 0x5C9E, size: 0x8, addend: 0x0, symName: __ZNSt3__1lsB7v160006INS_11char_traitsIcEEEERNS_13basic_ostreamIcT_EES6_PKc, symObjAddr: 0x69C, symBinAddr: 0x100002C3C, symSize: 0x48 }
  - { offsetInCU: 0x5CE4, offset: 0x5CE4, size: 0x8, addend: 0x0, symName: __ZNSt3__14endlB7v160006IcNS_11char_traitsIcEEEERNS_13basic_ostreamIT_T0_EES7_, symObjAddr: 0x710, symBinAddr: 0x100002CB0, symSize: 0x58 }
  - { offsetInCU: 0x5F25, offset: 0x5F25, size: 0x8, addend: 0x0, symName: __ZNSt3__1lsB7v160006INS_11char_traitsIcEEEERNS_13basic_ostreamIcT_EES6_c, symObjAddr: 0x798, symBinAddr: 0x100002D38, symSize: 0x34 }
  - { offsetInCU: 0x616C, offset: 0x616C, size: 0x8, addend: 0x0, symName: __ZNSt3__1lsB7v160006INS_11char_traitsIcEEEERNS_13basic_ostreamIcT_EES6_a, symObjAddr: 0x7FC, symBinAddr: 0x100002D9C, symSize: 0x34 }
  - { offsetInCU: 0x63B3, offset: 0x63B3, size: 0x8, addend: 0x0, symName: __ZNSt3__1lsB7v160006INS_11char_traitsIcEEEERNS_13basic_ostreamIcT_EES6_h, symObjAddr: 0x860, symBinAddr: 0x100002E00, symSize: 0x34 }
  - { offsetInCU: 0x7E1E, offset: 0x7E1E, size: 0x8, addend: 0x0, symName: __ZNSt3__116__pad_and_outputB7v160006IcNS_11char_traitsIcEEEENS_19ostreambuf_iteratorIT_T0_EES6_PKS4_S8_S8_RNS_8ios_baseES4_, symObjAddr: 0xD60, symBinAddr: 0x100003300, symSize: 0x240 }
  - { offsetInCU: 0x7EED, offset: 0x7EED, size: 0x8, addend: 0x0, symName: __ZNSt3__119__debug_db_insert_cB7v160006INS_12basic_stringIcNS_11char_traitsIcEENS_9allocatorIcEEEEEEvPT_, symObjAddr: 0x1220, symBinAddr: 0x1000037C0, symSize: 0x10 }
  - { offsetInCU: 0x7F1E, offset: 0x7F1E, size: 0x8, addend: 0x0, symName: __ZNSt3__112__to_addressB7v160006IKcEEPT_S3_, symObjAddr: 0x12EC, symBinAddr: 0x10000388C, symSize: 0x14 }
  - { offsetInCU: 0x7F86, offset: 0x7F86, size: 0x8, addend: 0x0, symName: __ZNSt3__19use_facetB7v160006INS_5ctypeIcEEEERKT_RKNS_6localeE, symObjAddr: 0x156C, symBinAddr: 0x100003B0C, symSize: 0x2C }
  - { offsetInCU: 0x8455, offset: 0x8455, size: 0x8, addend: 0x0, symName: __ZNSt3__118__constexpr_strlenB7v160006EPKc, symObjAddr: 0x1604, symBinAddr: 0x100003BA4, symSize: 0x24 }
  - { offsetInCU: 0xA9CB, offset: 0xA9CB, size: 0x8, addend: 0x0, symName: _main, symObjAddr: 0x0, symBinAddr: 0x1000025A0, symSize: 0x69C }
  - { offsetInCU: 0xA9E4, offset: 0xA9E4, size: 0x8, addend: 0x0, symName: __ZNSt3__113basic_ostreamIcNS_11char_traitsIcEEElsB7v160006EPFRS3_S4_E, symObjAddr: 0x6E4, symBinAddr: 0x100002C84, symSize: 0x2C }
  - { offsetInCU: 0xAA16, offset: 0xAA16, size: 0x8, addend: 0x0, symName: __ZNSt3__114numeric_limitsIbE3maxB7v160006Ev, symObjAddr: 0x768, symBinAddr: 0x100002D08, symSize: 0x18 }
  - { offsetInCU: 0xAA29, offset: 0xAA29, size: 0x8, addend: 0x0, symName: __ZNSt3__114numeric_limitsIbE3minB7v160006Ev, symObjAddr: 0x780, symBinAddr: 0x100002D20, symSize: 0x18 }
  - { offsetInCU: 0xAA3C, offset: 0xAA3C, size: 0x8, addend: 0x0, symName: __ZNSt3__114numeric_limitsIcE3maxB7v160006Ev, symObjAddr: 0x7CC, symBinAddr: 0x100002D6C, symSize: 0x18 }
  - { offsetInCU: 0xAA4F, offset: 0xAA4F, size: 0x8, addend: 0x0, symName: __ZNSt3__114numeric_limitsIcE3minB7v160006Ev, symObjAddr: 0x7E4, symBinAddr: 0x100002D84, symSize: 0x18 }
  - { offsetInCU: 0xAA62, offset: 0xAA62, size: 0x8, addend: 0x0, symName: __ZNSt3__114numeric_limitsIaE3maxB7v160006Ev, symObjAddr: 0x830, symBinAddr: 0x100002DD0, symSize: 0x18 }
  - { offsetInCU: 0xAA75, offset: 0xAA75, size: 0x8, addend: 0x0, symName: __ZNSt3__114numeric_limitsIaE3minB7v160006Ev, symObjAddr: 0x848, symBinAddr: 0x100002DE8, symSize: 0x18 }
  - { offsetInCU: 0xAA88, offset: 0xAA88, size: 0x8, addend: 0x0, symName: __ZNSt3__114numeric_limitsIhE3maxB7v160006Ev, symObjAddr: 0x894, symBinAddr: 0x100002E34, symSize: 0x18 }
  - { offsetInCU: 0xAA9B, offset: 0xAA9B, size: 0x8, addend: 0x0, symName: __ZNSt3__114numeric_limitsIhE3minB7v160006Ev, symObjAddr: 0x8AC, symBinAddr: 0x100002E4C, symSize: 0x18 }
  - { offsetInCU: 0xAAAE, offset: 0xAAAE, size: 0x8, addend: 0x0, symName: __ZNSt3__114numeric_limitsIwE3maxB7v160006Ev, symObjAddr: 0x8C4, symBinAddr: 0x100002E64, symSize: 0x14 }
  - { offsetInCU: 0xAAC1, offset: 0xAAC1, size: 0x8, addend: 0x0, symName: __ZNSt3__114numeric_limitsIwE3minB7v160006Ev, symObjAddr: 0x8D8, symBinAddr: 0x100002E78, symSize: 0x14 }
  - { offsetInCU: 0xAAD4, offset: 0xAAD4, size: 0x8, addend: 0x0, symName: __ZNSt3__114numeric_limitsIsE3maxB7v160006Ev, symObjAddr: 0x8EC, symBinAddr: 0x100002E8C, symSize: 0x18 }
  - { offsetInCU: 0xAAE7, offset: 0xAAE7, size: 0x8, addend: 0x0, symName: __ZNSt3__114numeric_limitsIsE3minB7v160006Ev, symObjAddr: 0x904, symBinAddr: 0x100002EA4, symSize: 0x18 }
  - { offsetInCU: 0xAAFA, offset: 0xAAFA, size: 0x8, addend: 0x0, symName: __ZNSt3__114numeric_limitsIiE3maxB7v160006Ev, symObjAddr: 0x91C, symBinAddr: 0x100002EBC, symSize: 0x14 }
  - { offsetInCU: 0xAB0D, offset: 0xAB0D, size: 0x8, addend: 0x0, symName: __ZNSt3__114numeric_limitsIiE3minB7v160006Ev, symObjAddr: 0x930, symBinAddr: 0x100002ED0, symSize: 0x14 }
  - { offsetInCU: 0xAB20, offset: 0xAB20, size: 0x8, addend: 0x0, symName: __ZNSt3__114numeric_limitsIjE3maxB7v160006Ev, symObjAddr: 0x944, symBinAddr: 0x100002EE4, symSize: 0x14 }
  - { offsetInCU: 0xAB33, offset: 0xAB33, size: 0x8, addend: 0x0, symName: __ZNSt3__114numeric_limitsIjE3minB7v160006Ev, symObjAddr: 0x958, symBinAddr: 0x100002EF8, symSize: 0x14 }
  - { offsetInCU: 0xAB46, offset: 0xAB46, size: 0x8, addend: 0x0, symName: __ZNSt3__114numeric_limitsIlE3maxB7v160006Ev, symObjAddr: 0x96C, symBinAddr: 0x100002F0C, symSize: 0x14 }
  - { offsetInCU: 0xAB59, offset: 0xAB59, size: 0x8, addend: 0x0, symName: __ZNSt3__114numeric_limitsIlE3minB7v160006Ev, symObjAddr: 0x980, symBinAddr: 0x100002F20, symSize: 0x14 }
  - { offsetInCU: 0xAB6C, offset: 0xAB6C, size: 0x8, addend: 0x0, symName: __ZNSt3__114numeric_limitsImE3maxB7v160006Ev, symObjAddr: 0x994, symBinAddr: 0x100002F34, symSize: 0x14 }
  - { offsetInCU: 0xAB7F, offset: 0xAB7F, size: 0x8, addend: 0x0, symName: __ZNSt3__114numeric_limitsImE3minB7v160006Ev, symObjAddr: 0x9A8, symBinAddr: 0x100002F48, symSize: 0x14 }
  - { offsetInCU: 0xAB92, offset: 0xAB92, size: 0x8, addend: 0x0, symName: __ZNSt3__114numeric_limitsIdE3maxB7v160006Ev, symObjAddr: 0x9BC, symBinAddr: 0x100002F5C, symSize: 0x14 }
  - { offsetInCU: 0xABA5, offset: 0xABA5, size: 0x8, addend: 0x0, symName: __ZNSt3__114numeric_limitsIdE3minB7v160006Ev, symObjAddr: 0x9D0, symBinAddr: 0x100002F70, symSize: 0x14 }
  - { offsetInCU: 0xABB8, offset: 0xABB8, size: 0x8, addend: 0x0, symName: __ZNSt3__114numeric_limitsIeE3maxB7v160006Ev, symObjAddr: 0x9E4, symBinAddr: 0x100002F84, symSize: 0x14 }
  - { offsetInCU: 0xABCB, offset: 0xABCB, size: 0x8, addend: 0x0, symName: __ZNSt3__114numeric_limitsIeE3minB7v160006Ev, symObjAddr: 0x9F8, symBinAddr: 0x100002F98, symSize: 0x14 }
  - { offsetInCU: 0xABDE, offset: 0xABDE, size: 0x8, addend: 0x0, symName: __ZNSt3__114numeric_limitsIfE3maxB7v160006Ev, symObjAddr: 0xA0C, symBinAddr: 0x100002FAC, symSize: 0x14 }
  - { offsetInCU: 0xABF1, offset: 0xABF1, size: 0x8, addend: 0x0, symName: __ZNSt3__114numeric_limitsIfE3minB7v160006Ev, symObjAddr: 0xA20, symBinAddr: 0x100002FC0, symSize: 0x14 }
  - { offsetInCU: 0xAC04, offset: 0xAC04, size: 0x8, addend: 0x0, symName: __ZNSt3__123__libcpp_numeric_limitsIbLb1EE3maxB7v160006Ev, symObjAddr: 0xA34, symBinAddr: 0x100002FD4, symSize: 0xC }
  - { offsetInCU: 0xAC17, offset: 0xAC17, size: 0x8, addend: 0x0, symName: __ZNSt3__123__libcpp_numeric_limitsIbLb1EE3minB7v160006Ev, symObjAddr: 0xA40, symBinAddr: 0x100002FE0, symSize: 0xC }
  - { offsetInCU: 0xAC2A, offset: 0xAC2A, size: 0x8, addend: 0x0, symName: __ZNSt3__123__libcpp_numeric_limitsIcLb1EE3maxB7v160006Ev, symObjAddr: 0xA4C, symBinAddr: 0x100002FEC, symSize: 0x8 }
  - { offsetInCU: 0xAC3D, offset: 0xAC3D, size: 0x8, addend: 0x0, symName: __ZNSt3__123__libcpp_numeric_limitsIcLb1EE3minB7v160006Ev, symObjAddr: 0xA54, symBinAddr: 0x100002FF4, symSize: 0x8 }
  - { offsetInCU: 0xAC50, offset: 0xAC50, size: 0x8, addend: 0x0, symName: __ZNSt3__123__libcpp_numeric_limitsIaLb1EE3maxB7v160006Ev, symObjAddr: 0xA5C, symBinAddr: 0x100002FFC, symSize: 0x8 }
  - { offsetInCU: 0xAC63, offset: 0xAC63, size: 0x8, addend: 0x0, symName: __ZNSt3__123__libcpp_numeric_limitsIaLb1EE3minB7v160006Ev, symObjAddr: 0xA64, symBinAddr: 0x100003004, symSize: 0x8 }
  - { offsetInCU: 0xAC76, offset: 0xAC76, size: 0x8, addend: 0x0, symName: __ZNSt3__123__libcpp_numeric_limitsIhLb1EE3maxB7v160006Ev, symObjAddr: 0xA6C, symBinAddr: 0x10000300C, symSize: 0x8 }
  - { offsetInCU: 0xAC89, offset: 0xAC89, size: 0x8, addend: 0x0, symName: __ZNSt3__123__libcpp_numeric_limitsIhLb1EE3minB7v160006Ev, symObjAddr: 0xA74, symBinAddr: 0x100003014, symSize: 0x8 }
  - { offsetInCU: 0xAC9C, offset: 0xAC9C, size: 0x8, addend: 0x0, symName: __ZNSt3__123__libcpp_numeric_limitsIwLb1EE3maxB7v160006Ev, symObjAddr: 0xA7C, symBinAddr: 0x10000301C, symSize: 0x8 }
  - { offsetInCU: 0xACAF, offset: 0xACAF, size: 0x8, addend: 0x0, symName: __ZNSt3__123__libcpp_numeric_limitsIwLb1EE3minB7v160006Ev, symObjAddr: 0xA84, symBinAddr: 0x100003024, symSize: 0x8 }
  - { offsetInCU: 0xACC2, offset: 0xACC2, size: 0x8, addend: 0x0, symName: __ZNSt3__123__libcpp_numeric_limitsIsLb1EE3maxB7v160006Ev, symObjAddr: 0xA8C, symBinAddr: 0x10000302C, symSize: 0x8 }
  - { offsetInCU: 0xACD5, offset: 0xACD5, size: 0x8, addend: 0x0, symName: __ZNSt3__123__libcpp_numeric_limitsIsLb1EE3minB7v160006Ev, symObjAddr: 0xA94, symBinAddr: 0x100003034, symSize: 0x8 }
  - { offsetInCU: 0xACE8, offset: 0xACE8, size: 0x8, addend: 0x0, symName: __ZNSt3__123__libcpp_numeric_limitsIiLb1EE3maxB7v160006Ev, symObjAddr: 0xA9C, symBinAddr: 0x10000303C, symSize: 0x8 }
  - { offsetInCU: 0xACFB, offset: 0xACFB, size: 0x8, addend: 0x0, symName: __ZNSt3__123__libcpp_numeric_limitsIiLb1EE3minB7v160006Ev, symObjAddr: 0xAA4, symBinAddr: 0x100003044, symSize: 0x8 }
  - { offsetInCU: 0xAD0E, offset: 0xAD0E, size: 0x8, addend: 0x0, symName: __ZNSt3__123__libcpp_numeric_limitsIjLb1EE3maxB7v160006Ev, symObjAddr: 0xAAC, symBinAddr: 0x10000304C, symSize: 0x8 }
  - { offsetInCU: 0xAD21, offset: 0xAD21, size: 0x8, addend: 0x0, symName: __ZNSt3__123__libcpp_numeric_limitsIjLb1EE3minB7v160006Ev, symObjAddr: 0xAB4, symBinAddr: 0x100003054, symSize: 0x8 }
  - { offsetInCU: 0xAD34, offset: 0xAD34, size: 0x8, addend: 0x0, symName: __ZNSt3__123__libcpp_numeric_limitsIlLb1EE3maxB7v160006Ev, symObjAddr: 0xABC, symBinAddr: 0x10000305C, symSize: 0x8 }
  - { offsetInCU: 0xAD47, offset: 0xAD47, size: 0x8, addend: 0x0, symName: __ZNSt3__123__libcpp_numeric_limitsIlLb1EE3minB7v160006Ev, symObjAddr: 0xAC4, symBinAddr: 0x100003064, symSize: 0x8 }
  - { offsetInCU: 0xAD5A, offset: 0xAD5A, size: 0x8, addend: 0x0, symName: __ZNSt3__123__libcpp_numeric_limitsImLb1EE3maxB7v160006Ev, symObjAddr: 0xACC, symBinAddr: 0x10000306C, symSize: 0x8 }
  - { offsetInCU: 0xAD6D, offset: 0xAD6D, size: 0x8, addend: 0x0, symName: __ZNSt3__123__libcpp_numeric_limitsImLb1EE3minB7v160006Ev, symObjAddr: 0xAD4, symBinAddr: 0x100003074, symSize: 0x8 }
  - { offsetInCU: 0xAD80, offset: 0xAD80, size: 0x8, addend: 0x0, symName: __ZNSt3__123__libcpp_numeric_limitsIdLb1EE3maxB7v160006Ev, symObjAddr: 0xADC, symBinAddr: 0x10000307C, symSize: 0xC }
  - { offsetInCU: 0xAD93, offset: 0xAD93, size: 0x8, addend: 0x0, symName: __ZNSt3__123__libcpp_numeric_limitsIdLb1EE3minB7v160006Ev, symObjAddr: 0xAE8, symBinAddr: 0x100003088, symSize: 0xC }
  - { offsetInCU: 0xADA6, offset: 0xADA6, size: 0x8, addend: 0x0, symName: __ZNSt3__123__libcpp_numeric_limitsIeLb1EE3maxB7v160006Ev, symObjAddr: 0xAF4, symBinAddr: 0x100003094, symSize: 0xC }
  - { offsetInCU: 0xADB9, offset: 0xADB9, size: 0x8, addend: 0x0, symName: __ZNSt3__123__libcpp_numeric_limitsIeLb1EE3minB7v160006Ev, symObjAddr: 0xB00, symBinAddr: 0x1000030A0, symSize: 0xC }
  - { offsetInCU: 0xADCC, offset: 0xADCC, size: 0x8, addend: 0x0, symName: __ZNSt3__123__libcpp_numeric_limitsIfLb1EE3maxB7v160006Ev, symObjAddr: 0xB0C, symBinAddr: 0x1000030AC, symSize: 0xC }
  - { offsetInCU: 0xADDF, offset: 0xADDF, size: 0x8, addend: 0x0, symName: __ZNSt3__123__libcpp_numeric_limitsIfLb1EE3minB7v160006Ev, symObjAddr: 0xB18, symBinAddr: 0x1000030B8, symSize: 0xC }
  - { offsetInCU: 0xADF2, offset: 0xADF2, size: 0x8, addend: 0x0, symName: __ZNSt3__111char_traitsIcE6lengthEPKc, symObjAddr: 0xD10, symBinAddr: 0x1000032B0, symSize: 0x34 }
  - { offsetInCU: 0xAE32, offset: 0xAE32, size: 0x8, addend: 0x0, symName: __ZNKSt3__113basic_ostreamIcNS_11char_traitsIcEEE6sentrycvbB7v160006Ev, symObjAddr: 0xD44, symBinAddr: 0x1000032E4, symSize: 0x1C }
  - { offsetInCU: 0xAE56, offset: 0xAE56, size: 0x8, addend: 0x0, symName: __ZNSt3__119ostreambuf_iteratorIcNS_11char_traitsIcEEEC1B7v160006ERNS_13basic_ostreamIcS2_EE, symObjAddr: 0xFA0, symBinAddr: 0x100003540, symSize: 0x34 }
  - { offsetInCU: 0xAE8C, offset: 0xAE8C, size: 0x8, addend: 0x0, symName: __ZNKSt3__18ios_base5flagsB7v160006Ev, symObjAddr: 0xFD4, symBinAddr: 0x100003574, symSize: 0x18 }
  - { offsetInCU: 0xAEB2, offset: 0xAEB2, size: 0x8, addend: 0x0, symName: __ZNKSt3__19basic_iosIcNS_11char_traitsIcEEE4fillB7v160006Ev, symObjAddr: 0xFEC, symBinAddr: 0x10000358C, symSize: 0x64 }
  - { offsetInCU: 0xAED8, offset: 0xAED8, size: 0x8, addend: 0x0, symName: __ZNKSt3__119ostreambuf_iteratorIcNS_11char_traitsIcEEE6failedB7v160006Ev, symObjAddr: 0x1050, symBinAddr: 0x1000035F0, symSize: 0x24 }
  - { offsetInCU: 0xAEFC, offset: 0xAEFC, size: 0x8, addend: 0x0, symName: __ZNSt3__19basic_iosIcNS_11char_traitsIcEEE8setstateB7v160006Ej, symObjAddr: 0x1074, symBinAddr: 0x100003614, symSize: 0x2C }
  - { offsetInCU: 0xAF2F, offset: 0xAF2F, size: 0x8, addend: 0x0, symName: __ZNKSt3__18ios_base5widthB7v160006Ev, symObjAddr: 0x10AC, symBinAddr: 0x10000364C, symSize: 0x18 }
  - { offsetInCU: 0xAF55, offset: 0xAF55, size: 0x8, addend: 0x0, symName: __ZNSt3__115basic_streambufIcNS_11char_traitsIcEEE5sputnB7v160006EPKcl, symObjAddr: 0x10C4, symBinAddr: 0x100003664, symSize: 0x3C }
  - { offsetInCU: 0xAF95, offset: 0xAF95, size: 0x8, addend: 0x0, symName: __ZNSt3__112basic_stringIcNS_11char_traitsIcEENS_9allocatorIcEEEC1B7v160006Emc, symObjAddr: 0x1100, symBinAddr: 0x1000036A0, symSize: 0x3C }
  - { offsetInCU: 0xAFDB, offset: 0xAFDB, size: 0x8, addend: 0x0, symName: __ZNKSt3__112basic_stringIcNS_11char_traitsIcEENS_9allocatorIcEEE4dataB7v160006Ev, symObjAddr: 0x113C, symBinAddr: 0x1000036DC, symSize: 0x28 }
  - { offsetInCU: 0xAFFF, offset: 0xAFFF, size: 0x8, addend: 0x0, symName: __ZNSt3__18ios_base5widthB7v160006El, symObjAddr: 0x1164, symBinAddr: 0x100003704, symSize: 0x2C }
  - { offsetInCU: 0xB043, offset: 0xB043, size: 0x8, addend: 0x0, symName: __ZNSt3__112basic_stringIcNS_11char_traitsIcEENS_9allocatorIcEEEC2B7v160006Emc, symObjAddr: 0x1190, symBinAddr: 0x100003730, symSize: 0x54 }
  - { offsetInCU: 0xB08E, offset: 0xB08E, size: 0x8, addend: 0x0, symName: __ZNSt3__117__compressed_pairINS_12basic_stringIcNS_11char_traitsIcEENS_9allocatorIcEEE5__repES5_EC1B7v160006INS_18__default_init_tagESA_EEOT_OT0_, symObjAddr: 0x11E4, symBinAddr: 0x100003784, symSize: 0x3C }
  - { offsetInCU: 0xB0E4, offset: 0xB0E4, size: 0x8, addend: 0x0, symName: __ZNSt3__117__compressed_pairINS_12basic_stringIcNS_11char_traitsIcEENS_9allocatorIcEEE5__repES5_EC2B7v160006INS_18__default_init_tagESA_EEOT_OT0_, symObjAddr: 0x1230, symBinAddr: 0x1000037D0, symSize: 0x3C }
  - { offsetInCU: 0xB13B, offset: 0xB13B, size: 0x8, addend: 0x0, symName: __ZNSt3__122__compressed_pair_elemINS_12basic_stringIcNS_11char_traitsIcEENS_9allocatorIcEEE5__repELi0ELb0EEC2B7v160006ENS_18__default_init_tagE, symObjAddr: 0x126C, symBinAddr: 0x10000380C, symSize: 0x14 }
  - { offsetInCU: 0xB16D, offset: 0xB16D, size: 0x8, addend: 0x0, symName: __ZNSt3__122__compressed_pair_elemINS_9allocatorIcEELi1ELb1EEC2B7v160006ENS_18__default_init_tagE, symObjAddr: 0x1280, symBinAddr: 0x100003820, symSize: 0x2C }
  - { offsetInCU: 0xB1A0, offset: 0xB1A0, size: 0x8, addend: 0x0, symName: __ZNSt3__19allocatorIcEC2B7v160006Ev, symObjAddr: 0x12AC, symBinAddr: 0x10000384C, symSize: 0x2C }
  - { offsetInCU: 0xB1C9, offset: 0xB1C9, size: 0x8, addend: 0x0, symName: __ZNSt3__116__non_trivial_ifILb1ENS_9allocatorIcEEEC2B7v160006Ev, symObjAddr: 0x12D8, symBinAddr: 0x100003878, symSize: 0x14 }
  - { offsetInCU: 0xB1F0, offset: 0xB1F0, size: 0x8, addend: 0x0, symName: __ZNKSt3__112basic_stringIcNS_11char_traitsIcEENS_9allocatorIcEEE13__get_pointerB7v160006Ev, symObjAddr: 0x1300, symBinAddr: 0x1000038A0, symSize: 0x54 }
  - { offsetInCU: 0xB214, offset: 0xB214, size: 0x8, addend: 0x0, symName: __ZNKSt3__112basic_stringIcNS_11char_traitsIcEENS_9allocatorIcEEE9__is_longB7v160006Ev, symObjAddr: 0x1354, symBinAddr: 0x1000038F4, symSize: 0x38 }
  - { offsetInCU: 0xB238, offset: 0xB238, size: 0x8, addend: 0x0, symName: __ZNKSt3__112basic_stringIcNS_11char_traitsIcEENS_9allocatorIcEEE18__get_long_pointerB7v160006Ev, symObjAddr: 0x138C, symBinAddr: 0x10000392C, symSize: 0x28 }
  - { offsetInCU: 0xB25C, offset: 0xB25C, size: 0x8, addend: 0x0, symName: __ZNKSt3__112basic_stringIcNS_11char_traitsIcEENS_9allocatorIcEEE19__get_short_pointerB7v160006Ev, symObjAddr: 0x13B4, symBinAddr: 0x100003954, symSize: 0x28 }
  - { offsetInCU: 0xB280, offset: 0xB280, size: 0x8, addend: 0x0, symName: __ZNKSt3__117__compressed_pairINS_12basic_stringIcNS_11char_traitsIcEENS_9allocatorIcEEE5__repES5_E5firstB7v160006Ev, symObjAddr: 0x13DC, symBinAddr: 0x10000397C, symSize: 0x24 }
  - { offsetInCU: 0xB2A4, offset: 0xB2A4, size: 0x8, addend: 0x0, symName: __ZNKSt3__122__compressed_pair_elemINS_12basic_stringIcNS_11char_traitsIcEENS_9allocatorIcEEE5__repELi0ELb0EE5__getB7v160006Ev, symObjAddr: 0x1400, symBinAddr: 0x1000039A0, symSize: 0x14 }
  - { offsetInCU: 0xB2C9, offset: 0xB2C9, size: 0x8, addend: 0x0, symName: __ZNSt3__114pointer_traitsIPKcE10pointer_toB7v160006ERS1_, symObjAddr: 0x1414, symBinAddr: 0x1000039B4, symSize: 0x14 }
  - { offsetInCU: 0xB2EB, offset: 0xB2EB, size: 0x8, addend: 0x0, symName: __ZNSt3__119ostreambuf_iteratorIcNS_11char_traitsIcEEEC2B7v160006ERNS_13basic_ostreamIcS2_EE, symObjAddr: 0x1428, symBinAddr: 0x1000039C8, symSize: 0x54 }
  - { offsetInCU: 0xB321, offset: 0xB321, size: 0x8, addend: 0x0, symName: __ZNKSt3__19basic_iosIcNS_11char_traitsIcEEE5rdbufB7v160006Ev, symObjAddr: 0x147C, symBinAddr: 0x100003A1C, symSize: 0x24 }
  - { offsetInCU: 0xB347, offset: 0xB347, size: 0x8, addend: 0x0, symName: __ZNKSt3__18ios_base5rdbufB7v160006Ev, symObjAddr: 0x14A0, symBinAddr: 0x100003A40, symSize: 0x18 }
  - { offsetInCU: 0xB36C, offset: 0xB36C, size: 0x8, addend: 0x0, symName: __ZNSt3__111char_traitsIcE11eq_int_typeEii, symObjAddr: 0x14B8, symBinAddr: 0x100003A58, symSize: 0x28 }
  - { offsetInCU: 0xB39C, offset: 0xB39C, size: 0x8, addend: 0x0, symName: __ZNSt3__111char_traitsIcE3eofEv, symObjAddr: 0x14E0, symBinAddr: 0x100003A80, symSize: 0x8 }
  - { offsetInCU: 0xB3AF, offset: 0xB3AF, size: 0x8, addend: 0x0, symName: __ZNKSt3__19basic_iosIcNS_11char_traitsIcEEE5widenB7v160006Ec, symObjAddr: 0x14E8, symBinAddr: 0x100003A88, symSize: 0x84 }
  - { offsetInCU: 0xB41B, offset: 0xB41B, size: 0x8, addend: 0x0, symName: __ZNKSt3__15ctypeIcE5widenB7v160006Ec, symObjAddr: 0x1598, symBinAddr: 0x100003B38, symSize: 0x38 }
  - { offsetInCU: 0xB44E, offset: 0xB44E, size: 0x8, addend: 0x0, symName: __ZNSt3__18ios_base8setstateB7v160006Ej, symObjAddr: 0x15D0, symBinAddr: 0x100003B70, symSize: 0x34 }
...
